target datalayout = "e-m:e-p270:32:32-p271:32:32-p272:64:64-i64:64-i128:128-f80:128-n8:16:32:64-S128"
target triple = "x86_64-pc-linux-gnu"

; Function Attrs: nounwind uwtable
define internal i32 @pkt_split_dgram_sendmmsg(ptr noundef %0, ptr noundef %1, i64 noundef %2, i64 noundef %3, i64 noundef %4, ptr noundef %5) #0 {
  %7 = alloca i32, align 4
  %8 = alloca ptr, align 8
  %9 = alloca ptr, align 8
  %10 = alloca i64, align 8
  %11 = alloca i64, align 8
  %12 = alloca i64, align 8
  %13 = alloca ptr, align 8
  %14 = alloca ptr, align 8
  %15 = alloca i32, align 4
  store ptr %0, ptr %8, align 8, !tbaa !9
  store ptr %1, ptr %9, align 8, !tbaa !16
  store i64 %2, ptr %10, align 8, !tbaa !13
  store i64 %3, ptr %11, align 8, !tbaa !13
  store i64 %4, ptr %12, align 8, !tbaa !13
  store ptr %5, ptr %13, align 8, !tbaa !18
  call void @llvm.lifetime.start.p0(i64 8, ptr %14) #5
  %16 = load ptr, ptr %8, align 8, !tbaa !9
  %17 = call ptr @BIO_next(ptr noundef %16)
  store ptr %17, ptr %14, align 8, !tbaa !9
  %18 = load ptr, ptr %14, align 8, !tbaa !9
  %19 = icmp eq ptr %18, null
  br i1 %19, label %20, label %21

20:                                               ; preds = %6
  store i32 0, ptr %7, align 4
  store i32 1, ptr %15, align 4
  br label %29

21:                                               ; preds = %6
  %22 = load ptr, ptr %14, align 8, !tbaa !9
  %23 = load ptr, ptr %9, align 8, !tbaa !16
  %24 = load i64, ptr %10, align 8, !tbaa !13
  %25 = load i64, ptr %11, align 8, !tbaa !13
  %26 = load i64, ptr %12, align 8, !tbaa !13
  %27 = load ptr, ptr %13, align 8, !tbaa !18
  %28 = call i32 @BIO_sendmmsg(ptr noundef %22, ptr noundef %23, i64 noundef %24, i64 noundef %25, i64 noundef %26, ptr noundef %27)
  store i32 %28, ptr %7, align 4
  store i32 1, ptr %15, align 4
  br label %29

29:                                               ; preds = %21, %20
  call void @llvm.lifetime.end.p0(i64 8, ptr %14) #5
  %30 = load i32, ptr %7, align 4
  ret i32 %30
}