; Function Attrs: nounwind uwtable
define internal i32 @pkt_split_dgram_sendmmsg(ptr noundef %0, ptr noundef %1, i64 noundef %2, i64 noundef %3, i64 noundef %4, ptr noundef %5) #0 {
  %7 = tail call ptr @BIO_next(ptr noundef %0) #4
  %8 = icmp eq ptr %7, null
  br i1 %8, label %11, label %9

9:                                                ; preds = %6
  %10 = tail call i32 @BIO_sendmmsg(ptr noundef nonnull %7, ptr noundef %1, i64 noundef %2, i64 noundef %3, i64 noundef %4, ptr noundef %5) #4
  br label %11

11:                                               ; preds = %6, %9
  %.0 = phi i32 [ %10, %9 ], [ 0, %6 ]
  ret i32 %.0
}